target datalayout = "e-m:e-p270:32:32-p271:32:32-p272:64:64-i64:64-i128:128-f80:128-n8:16:32:64-S128"
target triple = "x86_64-pc-linux-gnu"

%struct.Agobj_s = type { %struct.Agtag_s, ptr }
%struct.Agtag_s = type { i32, i64 }
%struct.Agrec_s = type { ptr, ptr }
%struct.boxf = type { %struct.pointf_s, %struct.pointf_s }
%struct.pointf_s = type { double, double }
%struct.Agnodeinfo_t = type { %struct.Agrec_s, ptr, ptr, %struct.pointf_s, double, double, %struct.boxf, double, double, double, double, double, ptr, ptr, ptr, i8, i8, i8, i8, i32, i32, i32, ptr, double, i8, i8, ptr, ptr, i8, i64, i8, i8, i8, ptr, ptr, %struct.elist, %struct.elist, %struct.elist, %struct.elist, %struct.elist, ptr, i32, ptr, i32, i32, double, %struct.elist, %struct.elist, %struct.elist, %struct.elist, ptr, i32, i32, i32, [1 x double] }
%struct.elist = type { ptr, i64 }
%struct.Agedge_s = type { %struct.Agobj_s, %struct.dtlink_s_, %struct.dtlink_s_, ptr }
%struct.dtlink_s_ = type { ptr, %union.anon }
%union.anon = type { ptr }

; Function Attrs: nounwind uwtable
define internal void @dfscc(ptr noundef %0, ptr noundef %1, i32 noundef %2) #0 {
  %4 = alloca ptr, align 8
  %5 = alloca ptr, align 8
  %6 = alloca i32, align 4
  %7 = alloca ptr, align 8
  store ptr %0, ptr %4, align 8, !tbaa !3
  store ptr %1, ptr %5, align 8, !tbaa !8
  store i32 %2, ptr %6, align 4, !tbaa !45
  call void @llvm.lifetime.start.p0(i64 8, ptr %7) #13
  %8 = load ptr, ptr %5, align 8, !tbaa !8
  %9 = getelementptr inbounds nuw %struct.Agobj_s, ptr %8, i32 0, i32 1
  %10 = load ptr, ptr %9, align 8, !tbaa !10
  %11 = getelementptr inbounds nuw %struct.Agnodeinfo_t, ptr %10, i32 0, i32 21
  %12 = load i32, ptr %11, align 4, !tbaa !137
  %13 = icmp eq i32 %12, 0
  br i1 %13, label %14, label %76

14:                                               ; preds = %3
  %15 = load i32, ptr %6, align 4, !tbaa !45
  %16 = load ptr, ptr %5, align 8, !tbaa !8
  %17 = getelementptr inbounds nuw %struct.Agobj_s, ptr %16, i32 0, i32 1
  %18 = load ptr, ptr %17, align 8, !tbaa !10
  %19 = getelementptr inbounds nuw %struct.Agnodeinfo_t, ptr %18, i32 0, i32 21
  store i32 %15, ptr %19, align 4, !tbaa !137
  %20 = load ptr, ptr %4, align 8, !tbaa !3
  %21 = load ptr, ptr %5, align 8, !tbaa !8
  %22 = call ptr @agfstout(ptr noundef %20, ptr noundef %21)
  store ptr %22, ptr %7, align 8, !tbaa !60
  br label %23

23:                                               ; preds = %43, %14
  %24 = load ptr, ptr %7, align 8, !tbaa !60
  %25 = icmp ne ptr %24, null
  br i1 %25, label %26, label %47

26:                                               ; preds = %23
  %27 = load ptr, ptr %4, align 8, !tbaa !3
  %28 = load ptr, ptr %7, align 8, !tbaa !60
  %29 = getelementptr inbounds nuw %struct.Agobj_s, ptr %28, i32 0, i32 0
  %30 = load i32, ptr %29, align 8
  %31 = and i32 %30, 3
  %32 = icmp eq i32 %31, 2
  br i1 %32, label %33, label %35

33:                                               ; preds = %26
  %34 = load ptr, ptr %7, align 8, !tbaa !60
  br label %38

35:                                               ; preds = %26
  %36 = load ptr, ptr %7, align 8, !tbaa !60
  %37 = getelementptr inbounds %struct.Agedge_s, ptr %36, i64 -1
  br label %38

38:                                               ; preds = %35, %33
  %39 = phi ptr [ %34, %33 ], [ %37, %35 ]
  %40 = getelementptr inbounds nuw %struct.Agedge_s, ptr %39, i32 0, i32 3
  %41 = load ptr, ptr %40, align 8, !tbaa !108
  %42 = load i32, ptr %6, align 4, !tbaa !45
  call void @dfscc(ptr noundef %27, ptr noundef %41, i32 noundef %42)
  br label %43

43:                                               ; preds = %38
  %44 = load ptr, ptr %4, align 8, !tbaa !3
  %45 = load ptr, ptr %7, align 8, !tbaa !60
  %46 = call ptr @agnxtout(ptr noundef %44, ptr noundef %45)
  store ptr %46, ptr %7, align 8, !tbaa !60
  br label %23, !llvm.loop !162

47:                                               ; preds = %23
  %48 = load ptr, ptr %4, align 8, !tbaa !3
  %49 = load ptr, ptr %5, align 8, !tbaa !8
  %50 = call ptr @agfstin(ptr noundef %48, ptr noundef %49)
  store ptr %50, ptr %7, align 8, !tbaa !60
  br label %51

51:                                               ; preds = %71, %47
  %52 = load ptr, ptr %7, align 8, !tbaa !60
  %53 = icmp ne ptr %52, null
  br i1 %53, label %54, label %75

54:                                               ; preds = %51
  %55 = load ptr, ptr %4, align 8, !tbaa !3
  %56 = load ptr, ptr %7, align 8, !tbaa !60
  %57 = getelementptr inbounds nuw %struct.Agobj_s, ptr %56, i32 0, i32 0
  %58 = load i32, ptr %57, align 8
  %59 = and i32 %58, 3
  %60 = icmp eq i32 %59, 3
  br i1 %60, label %61, label %63

61:                                               ; preds = %54
  %62 = load ptr, ptr %7, align 8, !tbaa !60
  br label %66

63:                                               ; preds = %54
  %64 = load ptr, ptr %7, align 8, !tbaa !60
  %65 = getelementptr inbounds %struct.Agedge_s, ptr %64, i64 1
  br label %66

66:                                               ; preds = %63, %61
  %67 = phi ptr [ %62, %61 ], [ %65, %63 ]
  %68 = getelementptr inbounds nuw %struct.Agedge_s, ptr %67, i32 0, i32 3
  %69 = load ptr, ptr %68, align 8, !tbaa !108
  %70 = load i32, ptr %6, align 4, !tbaa !45
  call void @dfscc(ptr noundef %55, ptr noundef %69, i32 noundef %70)
  br label %71

71:                                               ; preds = %66
  %72 = load ptr, ptr %4, align 8, !tbaa !3
  %73 = load ptr, ptr %7, align 8, !tbaa !60
  %74 = call ptr @agnxtin(ptr noundef %72, ptr noundef %73)
  store ptr %74, ptr %7, align 8, !tbaa !60
  br label %51, !llvm.loop !163

75:                                               ; preds = %51
  br label %76

76:                                               ; preds = %75, %3
  call void @llvm.lifetime.end.p0(i64 8, ptr %7) #13
  ret void
}