; Function Attrs: nounwind uwtable
define internal fastcc void @dfscc(ptr noundef %0, ptr noundef %1, i32 noundef range(i32 -2147483647, -2147483648) %2) unnamed_addr #0 {
  %4 = getelementptr inbounds nuw i8, ptr %1, i64 16
  %5 = load ptr, ptr %4, align 8, !tbaa !3
  %6 = getelementptr inbounds nuw i8, ptr %5, i64 172
  %7 = load i32, ptr %6, align 4, !tbaa !93
  %8 = icmp eq i32 %7, 0
  br i1 %8, label %9, label %.loopexit

9:                                                ; preds = %3
  store i32 %2, ptr %6, align 4, !tbaa !93
  %10 = tail call ptr @agfstout(ptr noundef %0, ptr noundef nonnull %1) #15
  %.not24 = icmp eq ptr %10, null
  br i1 %.not24, label %._crit_edge, label %.lr.ph

.lr.ph:                                           ; preds = %9, %.lr.ph
  %.025 = phi ptr [ %17, %.lr.ph ], [ %10, %9 ]
  %11 = load i32, ptr %.025, align 8
  %12 = and i32 %11, 3
  %13 = icmp eq i32 %12, 2
  %.idx23 = select i1 %13, i64 0, i64 -64
  %14 = getelementptr inbounds i8, ptr %.025, i64 %.idx23
  %15 = getelementptr inbounds nuw i8, ptr %14, i64 56
  %16 = load ptr, ptr %15, align 8, !tbaa !66
  tail call fastcc void @dfscc(ptr noundef %0, ptr noundef %16, i32 noundef %2)
  %17 = tail call ptr @agnxtout(ptr noundef %0, ptr noundef nonnull %.025) #15
  %.not = icmp eq ptr %17, null
  br i1 %.not, label %._crit_edge, label %.lr.ph, !llvm.loop !146

._crit_edge:                                      ; preds = %.lr.ph, %9
  %18 = tail call ptr @agfstin(ptr noundef %0, ptr noundef nonnull %1) #15
  %.not2226 = icmp eq ptr %18, null
  br i1 %.not2226, label %.loopexit, label %.lr.ph29

.lr.ph29:                                         ; preds = %._crit_edge, %.lr.ph29
  %.127 = phi ptr [ %25, %.lr.ph29 ], [ %18, %._crit_edge ]
  %19 = load i32, ptr %.127, align 8
  %20 = and i32 %19, 3
  %21 = icmp eq i32 %20, 3
  %.idx = select i1 %21, i64 0, i64 64
  %22 = getelementptr inbounds nuw i8, ptr %.127, i64 %.idx
  %23 = getelementptr inbounds nuw i8, ptr %22, i64 56
  %24 = load ptr, ptr %23, align 8, !tbaa !66
  tail call fastcc void @dfscc(ptr noundef %0, ptr noundef %24, i32 noundef %2)
  %25 = tail call ptr @agnxtin(ptr noundef %0, ptr noundef nonnull %.127) #15
  %.not22 = icmp eq ptr %25, null
  br i1 %.not22, label %.loopexit, label %.lr.ph29, !llvm.loop !147

.loopexit:                                        ; preds = %.lr.ph29, %._crit_edge, %3
  ret void
}